target datalayout = "e-m:e-p270:32:32-p271:32:32-p272:64:64-i64:64-i128:128-f80:128-n8:16:32:64-S128"
target triple = "x86_64-pc-linux-gnu"

%struct._zend_accel_globals = type { i8, i8, i8, i8, i8, %struct._zend_accel_directives, ptr, ptr, [32 x i8], [32 x i8], i32, i8, i32, i8, i32, i64, i64, %struct._zend_array, i64, ptr, ptr, ptr, ptr, %struct._zend_string, [32768 x i8] }
%struct._zend_accel_directives = type { i64, i64, double, ptr, i64, i8, i8, i8, i8, i8, i8, i8, i8, i8, i8, i8, i64, i64, ptr, ptr, i64, i64, i64, i64, i64, ptr, ptr, ptr, i8, i8, i8, ptr, ptr }
%struct._zend_array = type { %struct._zend_refcounted_h, %union.anon.1, i32, %union.anon.2, i32, i32, i32, i32, i64, ptr }
%struct._zend_refcounted_h = type { i32, %union.anon.0 }
%union.anon.0 = type { i32 }
%union.anon.1 = type { i32 }
%union.anon.2 = type { ptr }
%struct._zend_string = type { %struct._zend_refcounted_h, i64, i64, [1 x i8] }
%struct._zend_persistent_script = type { %struct._zend_script, i64, i32, i64, i8, i8, i8, i32, i32, ptr, ptr, ptr, i64, %struct.zend_persistent_script_dynamic_members }
%struct._zend_script = type { ptr, %struct._zend_op_array, %struct._zend_array, %struct._zend_array }
%struct._zend_op_array = type { i8, [3 x i8], i32, ptr, ptr, ptr, i32, i32, ptr, ptr, ptr, ptr, i32, i32, i32, i32, ptr, ptr, ptr, ptr, ptr, i32, i32, ptr, ptr, ptr, i32, i32, i32, i32, ptr, ptr, [6 x ptr] }
%struct.zend_persistent_script_dynamic_members = type { i64, i64, i32, i64 }
%struct._zend_error_info = type { i32, i32, ptr, ptr }

@accel_globals = external global %struct._zend_accel_globals, align 8

; Function Attrs: nounwind uwtable
define hidden void @zend_persist_warnings_calc(i32 noundef %0, ptr noundef %1) #0 {
  %3 = alloca i32, align 4
  %4 = alloca ptr, align 8
  %5 = alloca i32, align 4
  store i32 %0, ptr %3, align 4
  store ptr %1, ptr %4, align 8
  %6 = load i32, ptr %3, align 4
  %7 = zext i32 %6 to i64
  %8 = mul i64 %7, 8
  %9 = add i64 %8, 7
  %10 = and i64 %9, -8
  %11 = load ptr, ptr getelementptr inbounds (%struct._zend_accel_globals, ptr @accel_globals, i32 0, i32 20), align 8
  %12 = getelementptr inbounds %struct._zend_persistent_script, ptr %11, i32 0, i32 12
  %13 = load i64, ptr %12, align 8
  %14 = add i64 %13, %10
  store i64 %14, ptr %12, align 8
  store i32 0, ptr %5, align 4
  br label %15

15:                                               ; preds = %72, %2
  %16 = load i32, ptr %5, align 4
  %17 = load i32, ptr %3, align 4
  %18 = icmp ult i32 %16, %17
  br i1 %18, label %19, label %75

19:                                               ; preds = %15
  %20 = load ptr, ptr getelementptr inbounds (%struct._zend_accel_globals, ptr @accel_globals, i32 0, i32 20), align 8
  %21 = getelementptr inbounds %struct._zend_persistent_script, ptr %20, i32 0, i32 12
  %22 = load i64, ptr %21, align 8
  %23 = add i64 %22, 24
  store i64 %23, ptr %21, align 8
  %24 = load ptr, ptr %4, align 8
  %25 = load i32, ptr %5, align 4
  %26 = zext i32 %25 to i64
  %27 = getelementptr inbounds ptr, ptr %24, i64 %26
  %28 = load ptr, ptr %27, align 8
  %29 = getelementptr inbounds %struct._zend_error_info, ptr %28, i32 0, i32 2
  %30 = load ptr, ptr %29, align 8
  %31 = load ptr, ptr %4, align 8
  %32 = load i32, ptr %5, align 4
  %33 = zext i32 %32 to i64
  %34 = getelementptr inbounds ptr, ptr %31, i64 %33
  %35 = load ptr, ptr %34, align 8
  %36 = getelementptr inbounds %struct._zend_error_info, ptr %35, i32 0, i32 2
  %37 = load ptr, ptr %36, align 8
  %38 = getelementptr inbounds %struct._zend_string, ptr %37, i32 0, i32 2
  %39 = load i64, ptr %38, align 8
  %40 = add i64 24, %39
  %41 = add i64 %40, 1
  %42 = call i32 @zend_shared_memdup_size(ptr noundef %30, i64 noundef %41)
  %43 = sext i32 %42 to i64
  %44 = load ptr, ptr getelementptr inbounds (%struct._zend_accel_globals, ptr @accel_globals, i32 0, i32 20), align 8
  %45 = getelementptr inbounds %struct._zend_persistent_script, ptr %44, i32 0, i32 12
  %46 = load i64, ptr %45, align 8
  %47 = add i64 %46, %43
  store i64 %47, ptr %45, align 8
  %48 = load ptr, ptr %4, align 8
  %49 = load i32, ptr %5, align 4
  %50 = zext i32 %49 to i64
  %51 = getelementptr inbounds ptr, ptr %48, i64 %50
  %52 = load ptr, ptr %51, align 8
  %53 = getelementptr inbounds %struct._zend_error_info, ptr %52, i32 0, i32 3
  %54 = load ptr, ptr %53, align 8
  %55 = load ptr, ptr %4, align 8
  %56 = load i32, ptr %5, align 4
  %57 = zext i32 %56 to i64
  %58 = getelementptr inbounds ptr, ptr %55, i64 %57
  %59 = load ptr, ptr %58, align 8
  %60 = getelementptr inbounds %struct._zend_error_info, ptr %59, i32 0, i32 3
  %61 = load ptr, ptr %60, align 8
  %62 = getelementptr inbounds %struct._zend_string, ptr %61, i32 0, i32 2
  %63 = load i64, ptr %62, align 8
  %64 = add i64 24, %63
  %65 = add i64 %64, 1
  %66 = call i32 @zend_shared_memdup_size(ptr noundef %54, i64 noundef %65)
  %67 = sext i32 %66 to i64
  %68 = load ptr, ptr getelementptr inbounds (%struct._zend_accel_globals, ptr @accel_globals, i32 0, i32 20), align 8
  %69 = getelementptr inbounds %struct._zend_persistent_script, ptr %68, i32 0, i32 12
  %70 = load i64, ptr %69, align 8
  %71 = add i64 %70, %67
  store i64 %71, ptr %69, align 8
  br label %72

72:                                               ; preds = %19
  %73 = load i32, ptr %5, align 4
  %74 = add i32 %73, 1
  store i32 %74, ptr %5, align 4
  br label %15

75:                                               ; preds = %15
  ret void
}