; Function Attrs: nounwind uwtable
define hidden void @zend_persist_warnings_calc(i32 noundef %0, ptr nocapture noundef readonly %1) local_unnamed_addr #0 {
  %3 = zext i32 %0 to i64
  %4 = shl nuw nsw i64 %3, 3
  %5 = load ptr, ptr getelementptr inbounds (%struct._zend_accel_globals, ptr @accel_globals, i64 0, i32 20), align 8
  %6 = getelementptr inbounds i8, ptr %5, i64 424
  %7 = load i64, ptr %6, align 8
  %8 = add i64 %7, %4
  store i64 %8, ptr %6, align 8
  %.not = icmp eq i32 %0, 0
  br i1 %.not, label %._crit_edge, label %.lr.ph

.lr.ph:                                           ; preds = %2, %.lr.ph
  %9 = phi i64 [ %37, %.lr.ph ], [ %8, %2 ]
  %10 = phi ptr [ %34, %.lr.ph ], [ %5, %2 ]
  %indvars.iv = phi i64 [ %indvars.iv.next, %.lr.ph ], [ 0, %2 ]
  %11 = getelementptr inbounds i8, ptr %10, i64 424
  %12 = add i64 %9, 24
  store i64 %12, ptr %11, align 8
  %13 = getelementptr inbounds ptr, ptr %1, i64 %indvars.iv
  %14 = load ptr, ptr %13, align 8
  %15 = getelementptr inbounds i8, ptr %14, i64 8
  %16 = load ptr, ptr %15, align 8
  %17 = getelementptr inbounds i8, ptr %16, i64 16
  %18 = load i64, ptr %17, align 8
  %19 = add i64 %18, 25
  %20 = tail call i32 @zend_shared_memdup_size(ptr noundef %16, i64 noundef %19) #4
  %21 = sext i32 %20 to i64
  %22 = load ptr, ptr getelementptr inbounds (%struct._zend_accel_globals, ptr @accel_globals, i64 0, i32 20), align 8
  %23 = getelementptr inbounds i8, ptr %22, i64 424
  %24 = load i64, ptr %23, align 8
  %25 = add i64 %24, %21
  store i64 %25, ptr %23, align 8
  %26 = load ptr, ptr %13, align 8
  %27 = getelementptr inbounds i8, ptr %26, i64 16
  %28 = load ptr, ptr %27, align 8
  %29 = getelementptr inbounds i8, ptr %28, i64 16
  %30 = load i64, ptr %29, align 8
  %31 = add i64 %30, 25
  %32 = tail call i32 @zend_shared_memdup_size(ptr noundef %28, i64 noundef %31) #4
  %33 = sext i32 %32 to i64
  %34 = load ptr, ptr getelementptr inbounds (%struct._zend_accel_globals, ptr @accel_globals, i64 0, i32 20), align 8
  %35 = getelementptr inbounds i8, ptr %34, i64 424
  %36 = load i64, ptr %35, align 8
  %37 = add i64 %36, %33
  store i64 %37, ptr %35, align 8
  %indvars.iv.next = add nuw nsw i64 %indvars.iv, 1
  %exitcond.not = icmp eq i64 %indvars.iv.next, %3
  br i1 %exitcond.not, label %._crit_edge, label %.lr.ph

._crit_edge:                                      ; preds = %.lr.ph, %2
  ret void
}